target datalayout = "e-m:e-p270:32:32-p271:32:32-p272:64:64-i64:64-i128:128-f80:128-n8:16:32:64-S128"
target triple = "x86_64-pc-linux-gnu"

%"class.std::__cxx11::basic_string" = type { %"struct.std::__cxx11::basic_string<char>::_Alloc_hider", i64, %union.anon }
%"struct.std::__cxx11::basic_string<char>::_Alloc_hider" = type { ptr }
%union.anon = type { i64, [8 x i8] }
%"class.pxrInternal_v0_24__pxrReserved__::TraceCollector" = type { %"class.pxrInternal_v0_24__pxrReserved__::TfWeakBase", %"class.pxrInternal_v0_24__pxrReserved__::TraceConcurrentList", %"class.std::__cxx11::basic_string", i64, %"struct.std::atomic.4", %"class.std::shared_ptr" }
%"class.pxrInternal_v0_24__pxrReserved__::TfWeakBase" = type { %"struct.std::atomic.0" }
%"struct.std::atomic.0" = type { %"struct.std::__atomic_base.1" }
%"struct.std::__atomic_base.1" = type { ptr }
%"class.pxrInternal_v0_24__pxrReserved__::TraceConcurrentList" = type <{ %"struct.std::atomic.2", [8 x i8] }>
%"struct.std::atomic.2" = type { %"struct.std::__atomic_base.3" }
%"struct.std::__atomic_base.3" = type { ptr }
%"struct.std::atomic.4" = type { %"struct.std::__atomic_base.5" }
%"struct.std::__atomic_base.5" = type { i32 }
%"class.std::shared_ptr" = type { %"class.std::__shared_ptr" }
%"class.std::__shared_ptr" = type { ptr, %"class.std::__shared_count" }
%"class.std::__shared_count" = type { ptr }
%class.anon = type { ptr }
%class.anon.78 = type { ptr }
%class.anon.79 = type { i8 }

@_ZN32pxrInternal_v0_24__pxrReserved__22externallyVisibleValueE = global i64 0, align 8

; Function Attrs: mustprogress nounwind uwtable
define internal noundef ptr @"_ZZN32pxrInternal_v0_24__pxrReserved__24ArchMeasureExecutionTimeIZNS_14TraceCollector21_MeasureScopeOverheadEvE3$_0EEmRKT_mPbENKUlPKviE_cvPFmS8_iEEv"(ptr noundef nonnull align 1 dereferenceable(1) %0) #5 align 2 {
  %2 = alloca ptr, align 8
  store ptr %0, ptr %2, align 8
  ret ptr @"_ZZN32pxrInternal_v0_24__pxrReserved__24ArchMeasureExecutionTimeIZNS_14TraceCollector21_MeasureScopeOverheadEvE3$_0EEmRKT_mPbENUlPKviE_8__invokeES8_i"
}

; Function Attrs: mustprogress uwtable
define internal noundef i64 @"_ZN32pxrInternal_v0_24__pxrReserved__24ArchMeasureExecutionTimeIZNS_14TraceCollector21_MeasureScopeOverheadEvE3$_0EEmRKT_mPb"(ptr noundef nonnull align 8 dereferenceable(8) %0, i64 noundef %1, ptr noundef %2) #4 {
  %4 = alloca ptr, align 8
  %5 = alloca i64, align 8
  %6 = alloca ptr, align 8
  %7 = alloca %class.anon.78, align 8
  %8 = alloca %class.anon.79, align 1
  store ptr %0, ptr %4, align 8
  store i64 %1, ptr %5, align 8
  store ptr %2, ptr %6, align 8
  %9 = getelementptr inbounds nuw %class.anon.78, ptr %7, i32 0, i32 0
  %10 = load ptr, ptr %4, align 8
  store ptr %10, ptr %9, align 8
  %11 = load i64, ptr %5, align 8
  %12 = load ptr, ptr %6, align 8
  %13 = call noundef ptr @"_ZZN32pxrInternal_v0_24__pxrReserved__24ArchMeasureExecutionTimeIZNS_14TraceCollector21_MeasureScopeOverheadEvE3$_0EEmRKT_mPbENKUlPKviE_cvPFmS8_iEEv"(ptr noundef nonnull align 1 dereferenceable(1) %8) #3
  %14 = call noundef i64 @_ZN32pxrInternal_v0_24__pxrReserved__25Arch_MeasureExecutionTimeEmPbPKvPFmS2_iE(i64 noundef %11, ptr noundef %12, ptr noundef %7, ptr noundef %13)
  ret i64 %14
}

; Function Attrs: mustprogress uwtable
define void @_ZN32pxrInternal_v0_24__pxrReserved__14TraceCollector21_MeasureScopeOverheadEv(ptr noundef nonnull align 8 dereferenceable(88) %0) #4 align 2 {
  %2 = alloca ptr, align 8
  %3 = alloca ptr, align 8
  %4 = alloca %class.anon, align 8
  store ptr %0, ptr %2, align 8
  %5 = load ptr, ptr %2, align 8
  store ptr @_ZN32pxrInternal_v0_24__pxrReserved__22externallyVisibleValueE, ptr %3, align 8
  %6 = getelementptr inbounds nuw %class.anon, ptr %4, i32 0, i32 0
  %7 = load ptr, ptr %3, align 8
  store ptr %7, ptr %6, align 8
  %8 = call noundef i64 @"_ZN32pxrInternal_v0_24__pxrReserved__24ArchMeasureExecutionTimeIZNS_14TraceCollector21_MeasureScopeOverheadEvE3$_0EEmRKT_mPb"(ptr noundef nonnull align 8 dereferenceable(8) %4, i64 noundef 10000000, ptr noundef null)
  %9 = getelementptr inbounds nuw %"class.pxrInternal_v0_24__pxrReserved__::TraceCollector", ptr %5, i32 0, i32 3
  store i64 %8, ptr %9, align 8
  ret void
}