; Function Attrs: mustprogress uwtable
define void @_ZN32pxrInternal_v0_24__pxrReserved__14TraceCollector21_MeasureScopeOverheadEv(ptr nocapture noundef nonnull writeonly align 8 dereferenceable(88) %0) local_unnamed_addr #3 align 2 {
  %2 = alloca %class.anon.78, align 8
  %3 = alloca %class.anon, align 8
  store ptr @_ZN32pxrInternal_v0_24__pxrReserved__22externallyVisibleValueE, ptr %3, align 8
  call void @llvm.lifetime.start.p0(i64 8, ptr nonnull %2)
  store ptr %3, ptr %2, align 8
  %4 = call noundef i64 @_ZN32pxrInternal_v0_24__pxrReserved__25Arch_MeasureExecutionTimeEmPbPKvPFmS2_iE(i64 noundef 10000000, ptr noundef null, ptr noundef nonnull %2, ptr noundef nonnull @"_ZZN32pxrInternal_v0_24__pxrReserved__24ArchMeasureExecutionTimeIZNS_14TraceCollector21_MeasureScopeOverheadEvE3$_0EEmRKT_mPbENUlPKviE_8__invokeES8_i")
  call void @llvm.lifetime.end.p0(i64 8, ptr nonnull %2)
  %5 = getelementptr inbounds nuw i8, ptr %0, i64 56
  store i64 %4, ptr %5, align 8
  ret void
}